target datalayout = "e-m:e-p270:32:32-p271:32:32-p272:64:64-i64:64-i128:128-f80:128-n8:16:32:64-S128"
target triple = "x86_64-pc-linux-gnu"

@_pcre2_OP_lengths_8 = external constant [0 x i8], align 1
@_pcre2_utf8_table4 = external constant [0 x i8], align 1

; Function Attrs: nounwind uwtable
define internal ptr @find_recurse(ptr noundef %0, i32 noundef %1) #0 {
  %3 = alloca ptr, align 8
  %4 = alloca ptr, align 8
  %5 = alloca i32, align 4
  %6 = alloca i8, align 1
  store ptr %0, ptr %4, align 8
  store i32 %1, ptr %5, align 4
  br label %7

7:                                                ; preds = %136, %2
  %8 = load ptr, ptr %4, align 8
  %9 = load i8, ptr %8, align 1
  store i8 %9, ptr %6, align 1
  %10 = load i8, ptr %6, align 1
  %11 = zext i8 %10 to i32
  %12 = icmp eq i32 %11, 0
  br i1 %12, label %13, label %14

13:                                               ; preds = %7
  store ptr null, ptr %3, align 8
  br label %137

14:                                               ; preds = %7
  %15 = load i8, ptr %6, align 1
  %16 = zext i8 %15 to i32
  %17 = icmp eq i32 %16, 117
  br i1 %17, label %18, label %20

18:                                               ; preds = %14
  %19 = load ptr, ptr %4, align 8
  store ptr %19, ptr %3, align 8
  br label %137

20:                                               ; preds = %14
  %21 = load i8, ptr %6, align 1
  %22 = zext i8 %21 to i32
  %23 = icmp eq i32 %22, 112
  br i1 %23, label %24, label %38

24:                                               ; preds = %20
  %25 = load ptr, ptr %4, align 8
  %26 = getelementptr inbounds i8, ptr %25, i64 1
  %27 = load i8, ptr %26, align 1
  %28 = zext i8 %27 to i32
  %29 = shl i32 %28, 8
  %30 = load ptr, ptr %4, align 8
  %31 = getelementptr inbounds i8, ptr %30, i64 2
  %32 = load i8, ptr %31, align 1
  %33 = zext i8 %32 to i32
  %34 = or i32 %29, %33
  %35 = load ptr, ptr %4, align 8
  %36 = zext i32 %34 to i64
  %37 = getelementptr inbounds i8, ptr %35, i64 %36
  store ptr %37, ptr %4, align 8
  br label %136

38:                                               ; preds = %20
  %39 = load i8, ptr %6, align 1
  %40 = zext i8 %39 to i32
  %41 = icmp eq i32 %40, 119
  br i1 %41, label %42, label %56

42:                                               ; preds = %38
  %43 = load ptr, ptr %4, align 8
  %44 = getelementptr inbounds i8, ptr %43, i64 5
  %45 = load i8, ptr %44, align 1
  %46 = zext i8 %45 to i32
  %47 = shl i32 %46, 8
  %48 = load ptr, ptr %4, align 8
  %49 = getelementptr inbounds i8, ptr %48, i64 6
  %50 = load i8, ptr %49, align 1
  %51 = zext i8 %50 to i32
  %52 = or i32 %47, %51
  %53 = load ptr, ptr %4, align 8
  %54 = zext i32 %52 to i64
  %55 = getelementptr inbounds i8, ptr %53, i64 %54
  store ptr %55, ptr %4, align 8
  br label %135

56:                                               ; preds = %38
  %57 = load i8, ptr %6, align 1
  %58 = zext i8 %57 to i32
  switch i32 %58, label %99 [
    i32 85, label %59
    i32 86, label %59
    i32 87, label %59
    i32 88, label %59
    i32 89, label %59
    i32 90, label %59
    i32 94, label %59
    i32 95, label %59
    i32 96, label %59
    i32 97, label %75
    i32 91, label %75
    i32 92, label %75
    i32 93, label %75
    i32 154, label %91
    i32 162, label %91
    i32 156, label %91
    i32 158, label %91
    i32 160, label %91
  ]

59:                                               ; preds = %56, %56, %56, %56, %56, %56, %56, %56, %56
  %60 = load ptr, ptr %4, align 8
  %61 = getelementptr inbounds i8, ptr %60, i64 1
  %62 = load i8, ptr %61, align 1
  %63 = zext i8 %62 to i32
  %64 = icmp eq i32 %63, 16
  br i1 %64, label %71, label %65

65:                                               ; preds = %59
  %66 = load ptr, ptr %4, align 8
  %67 = getelementptr inbounds i8, ptr %66, i64 1
  %68 = load i8, ptr %67, align 1
  %69 = zext i8 %68 to i32
  %70 = icmp eq i32 %69, 15
  br i1 %70, label %71, label %74

71:                                               ; preds = %65, %59
  %72 = load ptr, ptr %4, align 8
  %73 = getelementptr inbounds i8, ptr %72, i64 2
  store ptr %73, ptr %4, align 8
  br label %74

74:                                               ; preds = %71, %65
  br label %99

75:                                               ; preds = %56, %56, %56, %56
  %76 = load ptr, ptr %4, align 8
  %77 = getelementptr inbounds i8, ptr %76, i64 3
  %78 = load i8, ptr %77, align 1
  %79 = zext i8 %78 to i32
  %80 = icmp eq i32 %79, 16
  br i1 %80, label %87, label %81

81:                                               ; preds = %75
  %82 = load ptr, ptr %4, align 8
  %83 = getelementptr inbounds i8, ptr %82, i64 3
  %84 = load i8, ptr %83, align 1
  %85 = zext i8 %84 to i32
  %86 = icmp eq i32 %85, 15
  br i1 %86, label %87, label %90

87:                                               ; preds = %81, %75
  %88 = load ptr, ptr %4, align 8
  %89 = getelementptr inbounds i8, ptr %88, i64 2
  store ptr %89, ptr %4, align 8
  br label %90

90:                                               ; preds = %87, %81
  br label %99

91:                                               ; preds = %56, %56, %56, %56, %56
  %92 = load ptr, ptr %4, align 8
  %93 = getelementptr inbounds i8, ptr %92, i64 1
  %94 = load i8, ptr %93, align 1
  %95 = zext i8 %94 to i32
  %96 = load ptr, ptr %4, align 8
  %97 = sext i32 %95 to i64
  %98 = getelementptr inbounds i8, ptr %96, i64 %97
  store ptr %98, ptr %4, align 8
  br label %99

99:                                               ; preds = %91, %90, %74, %56
  %100 = load i8, ptr %6, align 1
  %101 = zext i8 %100 to i64
  %102 = getelementptr inbounds [0 x i8], ptr @_pcre2_OP_lengths_8, i64 0, i64 %101
  %103 = load i8, ptr %102, align 1
  %104 = zext i8 %103 to i32
  %105 = load ptr, ptr %4, align 8
  %106 = sext i32 %104 to i64
  %107 = getelementptr inbounds i8, ptr %105, i64 %106
  store ptr %107, ptr %4, align 8
  %108 = load i32, ptr %5, align 4
  %109 = icmp ne i32 %108, 0
  br i1 %109, label %110, label %134

110:                                              ; preds = %99
  %111 = load i8, ptr %6, align 1
  %112 = zext i8 %111 to i32
  switch i32 %112, label %133 [
    i32 29, label %113
    i32 30, label %113
    i32 31, label %113
    i32 32, label %113
    i32 41, label %113
    i32 54, label %113
    i32 67, label %113
    i32 80, label %113
    i32 39, label %113
    i32 52, label %113
    i32 65, label %113
    i32 78, label %113
    i32 40, label %113
    i32 53, label %113
    i32 66, label %113
    i32 79, label %113
    i32 45, label %113
    i32 58, label %113
    i32 71, label %113
    i32 84, label %113
    i32 33, label %113
    i32 46, label %113
    i32 59, label %113
    i32 72, label %113
    i32 34, label %113
    i32 47, label %113
    i32 60, label %113
    i32 73, label %113
    i32 42, label %113
    i32 55, label %113
    i32 68, label %113
    i32 81, label %113
    i32 35, label %113
    i32 48, label %113
    i32 61, label %113
    i32 74, label %113
    i32 36, label %113
    i32 49, label %113
    i32 62, label %113
    i32 75, label %113
    i32 43, label %113
    i32 56, label %113
    i32 69, label %113
    i32 82, label %113
    i32 37, label %113
    i32 50, label %113
    i32 63, label %113
    i32 76, label %113
    i32 38, label %113
    i32 51, label %113
    i32 64, label %113
    i32 77, label %113
    i32 44, label %113
    i32 57, label %113
    i32 70, label %113
    i32 83, label %113
  ]

113:                                              ; preds = %110, %110, %110, %110, %110, %110, %110, %110, %110, %110, %110, %110, %110, %110, %110, %110, %110, %110, %110, %110, %110, %110, %110, %110, %110, %110, %110, %110, %110, %110, %110, %110, %110, %110, %110, %110, %110, %110, %110, %110, %110, %110, %110, %110, %110, %110, %110, %110, %110, %110, %110, %110, %110, %110, %110, %110
  %114 = load ptr, ptr %4, align 8
  %115 = getelementptr inbounds i8, ptr %114, i64 -1
  %116 = load i8, ptr %115, align 1
  %117 = zext i8 %116 to i32
  %118 = icmp sge i32 %117, 192
  br i1 %118, label %119, label %132

119:                                              ; preds = %113
  %120 = load ptr, ptr %4, align 8
  %121 = getelementptr inbounds i8, ptr %120, i64 -1
  %122 = load i8, ptr %121, align 1
  %123 = zext i8 %122 to i32
  %124 = and i32 %123, 63
  %125 = zext i32 %124 to i64
  %126 = getelementptr inbounds [0 x i8], ptr @_pcre2_utf8_table4, i64 0, i64 %125
  %127 = load i8, ptr %126, align 1
  %128 = zext i8 %127 to i32
  %129 = load ptr, ptr %4, align 8
  %130 = sext i32 %128 to i64
  %131 = getelementptr inbounds i8, ptr %129, i64 %130
  store ptr %131, ptr %4, align 8
  br label %132

132:                                              ; preds = %119, %113
  br label %133

133:                                              ; preds = %132, %110
  br label %134

134:                                              ; preds = %133, %99
  br label %135

135:                                              ; preds = %134, %42
  br label %136

136:                                              ; preds = %135, %24
  br label %7

137:                                              ; preds = %18, %13
  %138 = load ptr, ptr %3, align 8
  ret ptr %138
}