; Function Attrs: nofree norecurse nosync nounwind memory(read, inaccessiblemem: none) uwtable
define internal fastcc noundef ptr @find_recurse(ptr noundef readonly %0, i32 noundef %1) unnamed_addr #7 {
  %.not.not = icmp eq i32 %1, 0
  br i1 %.not.not, label %.split.us, label %.split

.split.us:                                        ; preds = %2, %.split.us.backedge
  %.028.us = phi ptr [ %.028.us.be, %.split.us.backedge ], [ %0, %2 ]
  %3 = load i8, ptr %.028.us, align 1
  switch i8 %3, label %39 [
    i8 0, label %.split45.us.loopexit57
    i8 117, label %.split45.us
    i8 112, label %29
    i8 119, label %19
    i8 85, label %11
    i8 86, label %11
    i8 87, label %11
    i8 88, label %11
    i8 89, label %11
    i8 90, label %11
    i8 94, label %11
    i8 95, label %11
    i8 96, label %11
    i8 97, label %8
    i8 91, label %8
    i8 92, label %8
    i8 93, label %8
    i8 -102, label %4
    i8 -94, label %4
    i8 -100, label %4
    i8 -98, label %4
    i8 -96, label %4
  ]

4:                                                ; preds = %.split.us, %.split.us, %.split.us, %.split.us, %.split.us
  %5 = getelementptr inbounds i8, ptr %.028.us, i64 1
  %6 = load i8, ptr %5, align 1
  %7 = zext i8 %6 to i64
  br label %.thread.us

8:                                                ; preds = %.split.us, %.split.us, %.split.us, %.split.us
  %9 = getelementptr inbounds i8, ptr %.028.us, i64 3
  %10 = load i8, ptr %9, align 1
  %.off35.us = add i8 %10, -15
  %switch36.us = icmp ult i8 %.off35.us, 2
  %spec.select37.idx.us = select i1 %switch36.us, i64 2, i64 0
  br label %.thread.us

11:                                               ; preds = %.split.us, %.split.us, %.split.us, %.split.us, %.split.us, %.split.us, %.split.us, %.split.us, %.split.us
  %12 = getelementptr inbounds i8, ptr %.028.us, i64 1
  %13 = load i8, ptr %12, align 1
  %.off33.us = add i8 %13, -15
  %switch34.us = icmp ult i8 %.off33.us, 2
  %spec.select.idx.us = select i1 %switch34.us, i64 2, i64 0
  br label %.thread.us

.thread.us:                                       ; preds = %11, %8, %4
  %spec.select.idx.us.sink = phi i64 [ %spec.select.idx.us, %11 ], [ %spec.select37.idx.us, %8 ], [ %7, %4 ]
  %spec.select.us = getelementptr inbounds i8, ptr %.028.us, i64 %spec.select.idx.us.sink
  %14 = zext i8 %3 to i64
  %15 = getelementptr inbounds [0 x i8], ptr @_pcre2_OP_lengths_8, i64 0, i64 %14
  %16 = load i8, ptr %15, align 1
  %17 = zext i8 %16 to i64
  %18 = getelementptr inbounds i8, ptr %spec.select.us, i64 %17
  br label %.split.us.backedge

19:                                               ; preds = %.split.us
  %20 = getelementptr inbounds i8, ptr %.028.us, i64 5
  %21 = load i8, ptr %20, align 1
  %22 = zext i8 %21 to i64
  %23 = shl nuw nsw i64 %22, 8
  %24 = getelementptr inbounds i8, ptr %.028.us, i64 6
  %25 = load i8, ptr %24, align 1
  %26 = zext i8 %25 to i64
  %27 = or disjoint i64 %23, %26
  %28 = getelementptr inbounds i8, ptr %.028.us, i64 %27
  br label %.split.us.backedge

29:                                               ; preds = %.split.us
  %30 = getelementptr inbounds i8, ptr %.028.us, i64 1
  %31 = load i8, ptr %30, align 1
  %32 = zext i8 %31 to i64
  %33 = shl nuw nsw i64 %32, 8
  %34 = getelementptr inbounds i8, ptr %.028.us, i64 2
  %35 = load i8, ptr %34, align 1
  %36 = zext i8 %35 to i64
  %37 = or disjoint i64 %33, %36
  %38 = getelementptr inbounds i8, ptr %.028.us, i64 %37
  br label %.split.us.backedge

39:                                               ; preds = %.split.us
  %40 = zext i8 %3 to i64
  %41 = getelementptr inbounds [0 x i8], ptr @_pcre2_OP_lengths_8, i64 0, i64 %40
  %42 = load i8, ptr %41, align 1
  %43 = zext i8 %42 to i64
  %44 = getelementptr inbounds i8, ptr %.028.us, i64 %43
  br label %.split.us.backedge

.split.us.backedge:                               ; preds = %39, %29, %19, %.thread.us
  %.028.us.be = phi ptr [ %38, %29 ], [ %28, %19 ], [ %44, %39 ], [ %18, %.thread.us ]
  br label %.split.us

.split:                                           ; preds = %2, %.split.backedge
  %.028 = phi ptr [ %.028.be, %.split.backedge ], [ %0, %2 ]
  %45 = load i8, ptr %.028, align 1
  switch i8 %45, label %81 [
    i8 0, label %.split45.us.loopexit59
    i8 117, label %.split45.us
    i8 112, label %46
    i8 119, label %56
    i8 85, label %66
    i8 86, label %66
    i8 87, label %66
    i8 88, label %66
    i8 89, label %66
    i8 90, label %66
    i8 94, label %66
    i8 95, label %66
    i8 96, label %66
    i8 97, label %69
    i8 91, label %69
    i8 92, label %69
    i8 93, label %69
    i8 -102, label %72
    i8 -94, label %72
    i8 -100, label %72
    i8 -98, label %72
    i8 -96, label %72
  ]

46:                                               ; preds = %.split
  %47 = getelementptr inbounds i8, ptr %.028, i64 1
  %48 = load i8, ptr %47, align 1
  %49 = zext i8 %48 to i64
  %50 = shl nuw nsw i64 %49, 8
  %51 = getelementptr inbounds i8, ptr %.028, i64 2
  %52 = load i8, ptr %51, align 1
  %53 = zext i8 %52 to i64
  %54 = or disjoint i64 %50, %53
  %55 = getelementptr inbounds i8, ptr %.028, i64 %54
  br label %.split.backedge

56:                                               ; preds = %.split
  %57 = getelementptr inbounds i8, ptr %.028, i64 5
  %58 = load i8, ptr %57, align 1
  %59 = zext i8 %58 to i64
  %60 = shl nuw nsw i64 %59, 8
  %61 = getelementptr inbounds i8, ptr %.028, i64 6
  %62 = load i8, ptr %61, align 1
  %63 = zext i8 %62 to i64
  %64 = or disjoint i64 %60, %63
  %65 = getelementptr inbounds i8, ptr %.028, i64 %64
  br label %.split.backedge

66:                                               ; preds = %.split, %.split, %.split, %.split, %.split, %.split, %.split, %.split, %.split
  %67 = getelementptr inbounds i8, ptr %.028, i64 1
  %68 = load i8, ptr %67, align 1
  %.off33 = add i8 %68, -15
  %switch34 = icmp ult i8 %.off33, 2
  %spec.select.idx = select i1 %switch34, i64 2, i64 0
  br label %.thread

69:                                               ; preds = %.split, %.split, %.split, %.split
  %70 = getelementptr inbounds i8, ptr %.028, i64 3
  %71 = load i8, ptr %70, align 1
  %.off35 = add i8 %71, -15
  %switch36 = icmp ult i8 %.off35, 2
  %spec.select37.idx = select i1 %switch36, i64 2, i64 0
  br label %.thread

72:                                               ; preds = %.split, %.split, %.split, %.split, %.split
  %73 = getelementptr inbounds i8, ptr %.028, i64 1
  %74 = load i8, ptr %73, align 1
  %75 = zext i8 %74 to i64
  br label %.thread

.thread:                                          ; preds = %69, %66, %72
  %spec.select37.idx.sink = phi i64 [ %spec.select37.idx, %69 ], [ %spec.select.idx, %66 ], [ %75, %72 ]
  %spec.select37 = getelementptr inbounds i8, ptr %.028, i64 %spec.select37.idx.sink
  %76 = zext i8 %45 to i64
  %77 = getelementptr inbounds [0 x i8], ptr @_pcre2_OP_lengths_8, i64 0, i64 %76
  %78 = load i8, ptr %77, align 1
  %79 = zext i8 %78 to i64
  %80 = getelementptr inbounds i8, ptr %spec.select37, i64 %79
  br label %.split.backedge

.split.backedge:                                  ; preds = %.thread, %56, %91, %87, %81, %46
  %.028.be = phi ptr [ %55, %46 ], [ %65, %56 ], [ %97, %91 ], [ %86, %87 ], [ %86, %81 ], [ %80, %.thread ]
  br label %.split

81:                                               ; preds = %.split
  %82 = zext i8 %45 to i64
  %83 = getelementptr inbounds [0 x i8], ptr @_pcre2_OP_lengths_8, i64 0, i64 %82
  %84 = load i8, ptr %83, align 1
  %85 = zext i8 %84 to i64
  %86 = getelementptr inbounds i8, ptr %.028, i64 %85
  %.off = add i8 %45, -29
  %switch = icmp ult i8 %.off, 56
  br i1 %switch, label %87, label %.split.backedge

87:                                               ; preds = %81
  %88 = getelementptr inbounds i8, ptr %86, i64 -1
  %89 = load i8, ptr %88, align 1
  %90 = icmp ugt i8 %89, -65
  br i1 %90, label %91, label %.split.backedge

91:                                               ; preds = %87
  %92 = and i8 %89, 63
  %93 = zext nneg i8 %92 to i64
  %94 = getelementptr inbounds [0 x i8], ptr @_pcre2_utf8_table4, i64 0, i64 %93
  %95 = load i8, ptr %94, align 1
  %96 = zext i8 %95 to i64
  %97 = getelementptr inbounds i8, ptr %86, i64 %96
  br label %.split.backedge

.split45.us.loopexit57:                           ; preds = %.split.us
  br label %.split45.us

.split45.us.loopexit59:                           ; preds = %.split
  br label %.split45.us

.split45.us:                                      ; preds = %.split, %.split.us, %.split45.us.loopexit59, %.split45.us.loopexit57
  %.0 = phi ptr [ null, %.split45.us.loopexit57 ], [ null, %.split45.us.loopexit59 ], [ %.028.us, %.split.us ], [ %.028, %.split ]
  ret ptr %.0
}